target datalayout = "e-m:e-p270:32:32-p271:32:32-p272:64:64-i64:64-i128:128-f80:128-n8:16:32:64-S128"
target triple = "x86_64-unknown-linux-gnu"

%struct.FlashPartInfo = type { ptr, [6 x i8], i8, i32, i32, i32, i16, i8, ptr }
%struct.Flash = type { %struct.SSIPeripheral, ptr, ptr, i32, i32, i8, [16 x i8], i32, i32, i8, i8, i8, i32, i32, i32, i32, i8, i8, i8, i8, i8, i8, i8, i8, i8, i8, i8, i8, i8, i8, i8, i8, i8, i8, i8, i8, i8, i64, ptr }
%struct.SSIPeripheral = type { %struct.DeviceState, ptr, i8, i8 }
%struct.DeviceState = type { %struct.Object, ptr, ptr, i8, i8, i64, ptr, i32, i8, ptr, %struct.NamedGPIOListHead, %struct.NamedClockListHead, %struct.BusStateHead, i32, i32, i32, %struct.ResettableState, ptr, %struct.MemReentrancyGuard }
%struct.Object = type { ptr, ptr, ptr, i32, ptr }
%struct.NamedGPIOListHead = type { ptr }
%struct.NamedClockListHead = type { ptr }
%struct.BusStateHead = type { ptr }
%struct.ResettableState = type { i32, i8, i8 }
%struct.MemReentrancyGuard = type { i8 }

@.str.139 = private unnamed_addr constant [26 x i8] c"../qemu/hw/block/m25p80.c\00", align 1
@.str.168 = private unnamed_addr constant [49 x i8] c"start >= 0 && length > 0 && length <= 32 - start\00", align 1
@.str.169 = private unnamed_addr constant [100 x i8] c"/home/dtcxzyw/WorkSpace/Projects/compilers/llvm-opt-benchmark/bench/qemu/qemu/include/qemu/bitops.h\00", align 1
@__PRETTY_FUNCTION__.extract32 = private unnamed_addr constant [39 x i8] c"uint32_t extract32(uint32_t, int, int)\00", align 1
@.str.185 = private unnamed_addr constant [26 x i8] c"get_man(s) == MAN_NUMONYX\00", align 1
@__PRETTY_FUNCTION__.numonyx_extract_cfg_num_dummies = private unnamed_addr constant [49 x i8] c"uint8_t numonyx_extract_cfg_num_dummies(Flash *)\00", align 1

; Function Attrs: nounwind sspstrong uwtable
define internal zeroext i8 @numonyx_mode(ptr noundef %s) #0 {
entry:
  %retval = alloca i8, align 1
  %s.addr = alloca ptr, align 8
  store ptr %s, ptr %s.addr, align 8
  %0 = load ptr, ptr %s.addr, align 8
  %enh_volatile_cfg = getelementptr inbounds %struct.Flash, ptr %0, i32 0, i32 15
  %1 = load i32, ptr %enh_volatile_cfg, align 4
  %and = and i32 %1, 128
  %tobool = icmp ne i32 %and, 0
  br i1 %tobool, label %if.else, label %if.then

if.then:                                          ; preds = %entry
  store i8 2, ptr %retval, align 1
  br label %return

if.else:                                          ; preds = %entry
  %2 = load ptr, ptr %s.addr, align 8
  %enh_volatile_cfg1 = getelementptr inbounds %struct.Flash, ptr %2, i32 0, i32 15
  %3 = load i32, ptr %enh_volatile_cfg1, align 4
  %and2 = and i32 %3, 64
  %tobool3 = icmp ne i32 %and2, 0
  br i1 %tobool3, label %if.else5, label %if.then4

if.then4:                                         ; preds = %if.else
  store i8 1, ptr %retval, align 1
  br label %return

if.else5:                                         ; preds = %if.else
  store i8 0, ptr %retval, align 1
  br label %return

return:                                           ; preds = %if.else5, %if.then4, %if.then
  %4 = load i8, ptr %retval, align 1
  ret i8 %4
}

; Function Attrs: nounwind sspstrong uwtable
define internal i32 @extract32(i32 noundef %value, i32 noundef %start, i32 noundef %length) #0 {
entry:
  %value.addr = alloca i32, align 4
  %start.addr = alloca i32, align 4
  %length.addr = alloca i32, align 4
  store i32 %value, ptr %value.addr, align 4
  store i32 %start, ptr %start.addr, align 4
  store i32 %length, ptr %length.addr, align 4
  %0 = load i32, ptr %start.addr, align 4
  %cmp = icmp sge i32 %0, 0
  br i1 %cmp, label %land.lhs.true, label %if.else

land.lhs.true:                                    ; preds = %entry
  %1 = load i32, ptr %length.addr, align 4
  %cmp1 = icmp sgt i32 %1, 0
  br i1 %cmp1, label %land.lhs.true2, label %if.else

land.lhs.true2:                                   ; preds = %land.lhs.true
  %2 = load i32, ptr %length.addr, align 4
  %3 = load i32, ptr %start.addr, align 4
  %sub = sub i32 32, %3
  %cmp3 = icmp sle i32 %2, %sub
  br i1 %cmp3, label %if.then, label %if.else

if.then:                                          ; preds = %land.lhs.true2
  br label %if.end

if.else:                                          ; preds = %land.lhs.true2, %land.lhs.true, %entry
  call void @__assert_fail(ptr noundef @.str.168, ptr noundef @.str.169, i32 noundef 338, ptr noundef @__PRETTY_FUNCTION__.extract32) #6
  unreachable

if.end:                                           ; preds = %if.then
  %4 = load i32, ptr %value.addr, align 4
  %5 = load i32, ptr %start.addr, align 4
  %shr = lshr i32 %4, %5
  %6 = load i32, ptr %length.addr, align 4
  %sub4 = sub i32 32, %6
  %shr5 = lshr i32 -1, %sub4
  %and = and i32 %shr, %shr5
  ret i32 %and
}

; Function Attrs: nounwind sspstrong uwtable
define internal zeroext i8 @numonyx_extract_cfg_num_dummies(ptr noundef %s) #0 {
entry:
  %s.addr = alloca ptr, align 8
  %num_dummies = alloca i8, align 1
  %mode = alloca i8, align 1
  store ptr %s, ptr %s.addr, align 8
  %0 = load ptr, ptr %s.addr, align 8
  %call = call i32 @get_man(ptr noundef %0)
  %cmp = icmp eq i32 %call, 2
  br i1 %cmp, label %if.then, label %if.else

if.then:                                          ; preds = %entry
  br label %if.end

if.else:                                          ; preds = %entry
  call void @__assert_fail(ptr noundef @.str.185, ptr noundef @.str.139, i32 noundef 942, ptr noundef @__PRETTY_FUNCTION__.numonyx_extract_cfg_num_dummies) #6
  unreachable

if.end:                                           ; preds = %if.then
  %1 = load ptr, ptr %s.addr, align 8
  %call1 = call zeroext i8 @numonyx_mode(ptr noundef %1)
  store i8 %call1, ptr %mode, align 1
  %2 = load ptr, ptr %s.addr, align 8
  %volatile_cfg = getelementptr inbounds %struct.Flash, ptr %2, i32 0, i32 14
  %3 = load i32, ptr %volatile_cfg, align 8
  %call2 = call i32 @extract32(i32 noundef %3, i32 noundef 4, i32 noundef 4)
  %conv = trunc i32 %call2 to i8
  store i8 %conv, ptr %num_dummies, align 1
  %4 = load i8, ptr %num_dummies, align 1
  %conv3 = zext i8 %4 to i32
  %cmp4 = icmp eq i32 %conv3, 0
  br i1 %cmp4, label %if.then9, label %lor.lhs.false

lor.lhs.false:                                    ; preds = %if.end
  %5 = load i8, ptr %num_dummies, align 1
  %conv6 = zext i8 %5 to i32
  %cmp7 = icmp eq i32 %conv6, 15
  br i1 %cmp7, label %if.then9, label %if.end15

if.then9:                                         ; preds = %lor.lhs.false, %if.end
  %6 = load ptr, ptr %s.addr, align 8
  %cmd_in_progress = getelementptr inbounds %struct.Flash, ptr %6, i32 0, i32 11
  %7 = load i8, ptr %cmd_in_progress, align 2
  %conv10 = zext i8 %7 to i32
  switch i32 %conv10, label %sw.default [
    i32 235, label %sw.bb
    i32 236, label %sw.bb
  ]

sw.bb:                                            ; preds = %if.then9, %if.then9
  store i8 10, ptr %num_dummies, align 1
  br label %sw.epilog

sw.default:                                       ; preds = %if.then9
  %8 = load i8, ptr %mode, align 1
  %conv11 = zext i8 %8 to i32
  %cmp12 = icmp eq i32 %conv11, 2
  %cond = select i1 %cmp12, i32 10, i32 8
  %conv14 = trunc i32 %cond to i8
  store i8 %conv14, ptr %num_dummies, align 1
  br label %sw.epilog

sw.epilog:                                        ; preds = %sw.default, %sw.bb
  br label %if.end15

if.end15:                                         ; preds = %sw.epilog, %lor.lhs.false
  %9 = load i8, ptr %num_dummies, align 1
  ret i8 %9
}

; Function Attrs: nounwind sspstrong uwtable
define internal i32 @get_man(ptr noundef %s) #0 {
entry:
  %retval = alloca i32, align 4
  %s.addr = alloca ptr, align 8
  store ptr %s, ptr %s.addr, align 8
  %0 = load ptr, ptr %s.addr, align 8
  %pi = getelementptr inbounds %struct.Flash, ptr %0, i32 0, i32 38
  %1 = load ptr, ptr %pi, align 8
  %id = getelementptr inbounds %struct.FlashPartInfo, ptr %1, i32 0, i32 1
  %arrayidx = getelementptr [6 x i8], ptr %id, i64 0, i64 0
  %2 = load i8, ptr %arrayidx, align 8
  %conv = zext i8 %2 to i32
  switch i32 %conv, label %sw.default [
    i32 32, label %sw.bb
    i32 239, label %sw.bb1
    i32 1, label %sw.bb2
    i32 194, label %sw.bb3
    i32 191, label %sw.bb4
    i32 157, label %sw.bb5
  ]

sw.bb:                                            ; preds = %entry
  store i32 2, ptr %retval, align 4
  br label %return

sw.bb1:                                           ; preds = %entry
  store i32 3, ptr %retval, align 4
  br label %return

sw.bb2:                                           ; preds = %entry
  store i32 0, ptr %retval, align 4
  br label %return

sw.bb3:                                           ; preds = %entry
  store i32 1, ptr %retval, align 4
  br label %return

sw.bb4:                                           ; preds = %entry
  store i32 4, ptr %retval, align 4
  br label %return

sw.bb5:                                           ; preds = %entry
  store i32 5, ptr %retval, align 4
  br label %return

sw.default:                                       ; preds = %entry
  store i32 6, ptr %retval, align 4
  br label %return

return:                                           ; preds = %sw.default, %sw.bb5, %sw.bb4, %sw.bb3, %sw.bb2, %sw.bb1, %sw.bb
  %3 = load i32, ptr %retval, align 4
  ret i32 %3
}

; Function Attrs: nounwind sspstrong uwtable
define internal i32 @get_addr_length(ptr noundef %s) #0 {
entry:
  %retval = alloca i32, align 4
  %s.addr = alloca ptr, align 8
  store ptr %s, ptr %s.addr, align 8
  %0 = load ptr, ptr %s.addr, align 8
  %pi = getelementptr inbounds %struct.Flash, ptr %0, i32 0, i32 38
  %1 = load ptr, ptr %pi, align 8
  %flags = getelementptr inbounds %struct.FlashPartInfo, ptr %1, i32 0, i32 6
  %2 = load i16, ptr %flags, align 4
  %conv = zext i16 %2 to i32
  %cmp = icmp eq i32 %conv, 4
  br i1 %cmp, label %if.then, label %if.end

if.then:                                          ; preds = %entry
  store i32 2, ptr %retval, align 4
  br label %return

if.end:                                           ; preds = %entry
  %3 = load ptr, ptr %s.addr, align 8
  %cmd_in_progress = getelementptr inbounds %struct.Flash, ptr %3, i32 0, i32 11
  %4 = load i8, ptr %cmd_in_progress, align 2
  %conv2 = zext i8 %4 to i32
  switch i32 %conv2, label %sw.default [
    i32 90, label %sw.bb
    i32 18, label %sw.bb3
    i32 62, label %sw.bb3
    i32 52, label %sw.bb3
    i32 19, label %sw.bb3
    i32 236, label %sw.bb3
    i32 33, label %sw.bb3
    i32 92, label %sw.bb3
    i32 220, label %sw.bb3
    i32 12, label %sw.bb3
    i32 60, label %sw.bb3
    i32 108, label %sw.bb3
    i32 188, label %sw.bb3
  ]

sw.bb:                                            ; preds = %if.end
  store i32 3, ptr %retval, align 4
  br label %return

sw.bb3:                                           ; preds = %if.end, %if.end, %if.end, %if.end, %if.end, %if.end, %if.end, %if.end, %if.end, %if.end, %if.end, %if.end
  store i32 4, ptr %retval, align 4
  br label %return

sw.default:                                       ; preds = %if.end
  %5 = load ptr, ptr %s.addr, align 8
  %four_bytes_address_mode = getelementptr inbounds %struct.Flash, ptr %5, i32 0, i32 26
  %6 = load i8, ptr %four_bytes_address_mode, align 2
  %tobool = trunc i8 %6 to i1
  %cond = select i1 %tobool, i32 4, i32 3
  store i32 %cond, ptr %retval, align 4
  br label %return

return:                                           ; preds = %sw.default, %sw.bb3, %sw.bb, %if.then
  %7 = load i32, ptr %retval, align 4
  ret i32 %7
}

; Function Attrs: nounwind sspstrong uwtable
define internal void @decode_fast_read_cmd(ptr noundef %s) #0 {
entry:
  %s.addr = alloca ptr, align 8
  store ptr %s, ptr %s.addr, align 8
  %0 = load ptr, ptr %s.addr, align 8
  %call = call i32 @get_addr_length(ptr noundef %0)
  %conv = trunc i32 %call to i8
  %1 = load ptr, ptr %s.addr, align 8
  %needed_bytes = getelementptr inbounds %struct.Flash, ptr %1, i32 0, i32 10
  store i8 %conv, ptr %needed_bytes, align 1
  %2 = load ptr, ptr %s.addr, align 8
  %call1 = call i32 @get_man(ptr noundef %2)
  switch i32 %call1, label %sw.default [
    i32 4, label %sw.bb
    i32 3, label %sw.bb5
    i32 2, label %sw.bb10
    i32 1, label %sw.bb17
    i32 0, label %sw.bb28
    i32 5, label %sw.bb35
  ]

sw.bb:                                            ; preds = %entry
  %3 = load ptr, ptr %s.addr, align 8
  %needed_bytes2 = getelementptr inbounds %struct.Flash, ptr %3, i32 0, i32 10
  %4 = load i8, ptr %needed_bytes2, align 1
  %conv3 = zext i8 %4 to i32
  %add = add i32 %conv3, 1
  %conv4 = trunc i32 %add to i8
  store i8 %conv4, ptr %needed_bytes2, align 1
  br label %sw.epilog

sw.bb5:                                           ; preds = %entry
  %5 = load ptr, ptr %s.addr, align 8
  %needed_bytes6 = getelementptr inbounds %struct.Flash, ptr %5, i32 0, i32 10
  %6 = load i8, ptr %needed_bytes6, align 1
  %conv7 = zext i8 %6 to i32
  %add8 = add i32 %conv7, 8
  %conv9 = trunc i32 %add8 to i8
  store i8 %conv9, ptr %needed_bytes6, align 1
  br label %sw.epilog

sw.bb10:                                          ; preds = %entry
  %7 = load ptr, ptr %s.addr, align 8
  %call11 = call zeroext i8 @numonyx_extract_cfg_num_dummies(ptr noundef %7)
  %conv12 = zext i8 %call11 to i32
  %8 = load ptr, ptr %s.addr, align 8
  %needed_bytes13 = getelementptr inbounds %struct.Flash, ptr %8, i32 0, i32 10
  %9 = load i8, ptr %needed_bytes13, align 1
  %conv14 = zext i8 %9 to i32
  %add15 = add i32 %conv14, %conv12
  %conv16 = trunc i32 %add15 to i8
  store i8 %conv16, ptr %needed_bytes13, align 1
  br label %sw.epilog

sw.bb17:                                          ; preds = %entry
  %10 = load ptr, ptr %s.addr, align 8
  %volatile_cfg = getelementptr inbounds %struct.Flash, ptr %10, i32 0, i32 14
  %11 = load i32, ptr %volatile_cfg, align 8
  %call18 = call i32 @extract32(i32 noundef %11, i32 noundef 6, i32 noundef 2)
  %cmp = icmp eq i32 %call18, 1
  br i1 %cmp, label %if.then, label %if.else

if.then:                                          ; preds = %sw.bb17
  %12 = load ptr, ptr %s.addr, align 8
  %needed_bytes20 = getelementptr inbounds %struct.Flash, ptr %12, i32 0, i32 10
  %13 = load i8, ptr %needed_bytes20, align 1
  %conv21 = zext i8 %13 to i32
  %add22 = add i32 %conv21, 6
  %conv23 = trunc i32 %add22 to i8
  store i8 %conv23, ptr %needed_bytes20, align 1
  br label %if.end

if.else:                                          ; preds = %sw.bb17
  %14 = load ptr, ptr %s.addr, align 8
  %needed_bytes24 = getelementptr inbounds %struct.Flash, ptr %14, i32 0, i32 10
  %15 = load i8, ptr %needed_bytes24, align 1
  %conv25 = zext i8 %15 to i32
  %add26 = add i32 %conv25, 8
  %conv27 = trunc i32 %add26 to i8
  store i8 %conv27, ptr %needed_bytes24, align 1
  br label %if.end

if.end:                                           ; preds = %if.else, %if.then
  br label %sw.epilog

sw.bb28:                                          ; preds = %entry
  %16 = load ptr, ptr %s.addr, align 8
  %spansion_cr2v = getelementptr inbounds %struct.Flash, ptr %16, i32 0, i32 21
  %17 = load i8, ptr %spansion_cr2v, align 1
  %conv29 = zext i8 %17 to i32
  %call30 = call i32 @extract32(i32 noundef %conv29, i32 noundef 0, i32 noundef 4)
  %18 = load ptr, ptr %s.addr, align 8
  %needed_bytes31 = getelementptr inbounds %struct.Flash, ptr %18, i32 0, i32 10
  %19 = load i8, ptr %needed_bytes31, align 1
  %conv32 = zext i8 %19 to i32
  %add33 = add i32 %conv32, %call30
  %conv34 = trunc i32 %add33 to i8
  store i8 %conv34, ptr %needed_bytes31, align 1
  br label %sw.epilog

sw.bb35:                                          ; preds = %entry
  %20 = load ptr, ptr %s.addr, align 8
  %needed_bytes36 = getelementptr inbounds %struct.Flash, ptr %20, i32 0, i32 10
  %21 = load i8, ptr %needed_bytes36, align 1
  %conv37 = zext i8 %21 to i32
  %add38 = add i32 %conv37, 1
  %conv39 = trunc i32 %add38 to i8
  store i8 %conv39, ptr %needed_bytes36, align 1
  br label %sw.epilog

sw.default:                                       ; preds = %entry
  br label %sw.epilog

sw.epilog:                                        ; preds = %sw.default, %sw.bb35, %sw.bb28, %if.end, %sw.bb10, %sw.bb5, %sw.bb
  %22 = load ptr, ptr %s.addr, align 8
  %pos = getelementptr inbounds %struct.Flash, ptr %22, i32 0, i32 8
  store i32 0, ptr %pos, align 8
  %23 = load ptr, ptr %s.addr, align 8
  %len = getelementptr inbounds %struct.Flash, ptr %23, i32 0, i32 7
  store i32 0, ptr %len, align 4
  %24 = load ptr, ptr %s.addr, align 8
  %state = getelementptr inbounds %struct.Flash, ptr %24, i32 0, i32 5
  store i8 3, ptr %state, align 8
  ret void
}