; Function Attrs: mustprogress nofree norecurse nosync nounwind sspstrong willreturn memory(read, argmem: readwrite, inaccessiblemem: none) uwtable
define internal fastcc void @decode_fast_read_cmd(ptr noundef captures(none) initializes((200, 201), (220, 228), (229, 230)) %s) unnamed_addr #9 {
entry:
  %pi.i = getelementptr inbounds nuw i8, ptr %s, i64 280
  %0 = load ptr, ptr %pi.i, align 8
  %flags.i = getelementptr inbounds nuw i8, ptr %0, i64 28
  %1 = load i16, ptr %flags.i, align 4
  %cmp.i = icmp eq i16 %1, 4
  br i1 %cmp.i, label %get_addr_length.exit, label %if.end.i

if.end.i:                                         ; preds = %entry
  %cmd_in_progress.i = getelementptr inbounds nuw i8, ptr %s, i64 230
  %2 = load i8, ptr %cmd_in_progress.i, align 2
  switch i8 %2, label %sw.default.i [
    i8 90, label %get_addr_length.exit
    i8 18, label %sw.bb3.i
    i8 62, label %sw.bb3.i
    i8 52, label %sw.bb3.i
    i8 19, label %sw.bb3.i
    i8 -20, label %sw.bb3.i
    i8 33, label %sw.bb3.i
    i8 92, label %sw.bb3.i
    i8 -36, label %sw.bb3.i
    i8 12, label %sw.bb3.i
    i8 60, label %sw.bb3.i
    i8 108, label %sw.bb3.i
    i8 -68, label %sw.bb3.i
  ]

sw.bb3.i:                                         ; preds = %if.end.i, %if.end.i, %if.end.i, %if.end.i, %if.end.i, %if.end.i, %if.end.i, %if.end.i, %if.end.i, %if.end.i, %if.end.i, %if.end.i
  br label %get_addr_length.exit

sw.default.i:                                     ; preds = %if.end.i
  %four_bytes_address_mode.i = getelementptr inbounds nuw i8, ptr %s, i64 258
  %3 = load i8, ptr %four_bytes_address_mode.i, align 2
  %tobool.i = trunc i8 %3 to i1
  %4 = select i1 %tobool.i, i8 4, i8 3
  br label %get_addr_length.exit

get_addr_length.exit:                             ; preds = %entry, %if.end.i, %sw.bb3.i, %sw.default.i
  %retval.0.i = phi i8 [ %4, %sw.default.i ], [ 4, %sw.bb3.i ], [ 2, %entry ], [ 3, %if.end.i ]
  %needed_bytes = getelementptr inbounds nuw i8, ptr %s, i64 229
  store i8 %retval.0.i, ptr %needed_bytes, align 1
  %5 = getelementptr i8, ptr %0, i64 8
  %s.val.val = load i8, ptr %5, align 8
  switch i8 %s.val.val, label %sw.epilog [
    i8 32, label %if.end.i20
    i8 -17, label %sw.bb5
    i8 1, label %sw.bb28
    i8 -62, label %sw.bb17
    i8 -65, label %sw.bb
    i8 -99, label %sw.bb35
  ]

sw.bb:                                            ; preds = %get_addr_length.exit
  %add = add nuw nsw i8 %retval.0.i, 1
  br label %sw.epilog.sink.split

sw.bb5:                                           ; preds = %get_addr_length.exit
  %add8 = or disjoint i8 %retval.0.i, 8
  br label %sw.epilog.sink.split

if.end.i20:                                       ; preds = %get_addr_length.exit
  %volatile_cfg.i = getelementptr inbounds nuw i8, ptr %s, i64 240
  %6 = load i32, ptr %volatile_cfg.i, align 8
  %shr.i.i = lshr i32 %6, 4
  %and.i8.i = and i32 %shr.i.i, 15
  %conv.i = trunc nuw nsw i32 %and.i8.i to i8
  switch i32 %and.i8.i, label %numonyx_extract_cfg_num_dummies.exit [
    i32 15, label %if.then9.i
    i32 0, label %if.then9.i
  ]

if.then9.i:                                       ; preds = %if.end.i20, %if.end.i20
  %7 = getelementptr i8, ptr %s, i64 244
  %s.val6.i = load i32, ptr %7, align 4
  %and.i.i = and i32 %s.val6.i, 128
  %tobool.not.i.i = icmp eq i32 %and.i.i, 0
  %cmd_in_progress.i21 = getelementptr inbounds nuw i8, ptr %s, i64 230
  %8 = load i8, ptr %cmd_in_progress.i21, align 2
  %.off.i = add i8 %8, 21
  %switch.i = icmp ult i8 %.off.i, 2
  %9 = select i1 %switch.i, i1 true, i1 %tobool.not.i.i
  %spec.select.i = select i1 %9, i8 10, i8 8
  br label %numonyx_extract_cfg_num_dummies.exit

numonyx_extract_cfg_num_dummies.exit:             ; preds = %if.end.i20, %if.then9.i
  %num_dummies.0.i = phi i8 [ %conv.i, %if.end.i20 ], [ %spec.select.i, %if.then9.i ]
  %add15 = add nuw nsw i8 %num_dummies.0.i, %retval.0.i
  br label %sw.epilog.sink.split

sw.bb17:                                          ; preds = %get_addr_length.exit
  %volatile_cfg = getelementptr inbounds nuw i8, ptr %s, i64 240
  %10 = load i32, ptr %volatile_cfg, align 8
  %11 = and i32 %10, 192
  %cmp = icmp eq i32 %11, 64
  br i1 %cmp, label %if.then, label %if.else

if.then:                                          ; preds = %sw.bb17
  %add22 = add nuw nsw i8 %retval.0.i, 6
  br label %sw.epilog.sink.split

if.else:                                          ; preds = %sw.bb17
  %add26 = or disjoint i8 %retval.0.i, 8
  br label %sw.epilog.sink.split

sw.bb28:                                          ; preds = %get_addr_length.exit
  %spansion_cr2v = getelementptr inbounds nuw i8, ptr %s, i64 253
  %12 = load i8, ptr %spansion_cr2v, align 1
  %13 = and i8 %12, 15
  %conv34 = add nuw nsw i8 %13, %retval.0.i
  br label %sw.epilog.sink.split

sw.bb35:                                          ; preds = %get_addr_length.exit
  %add38 = add nuw nsw i8 %retval.0.i, 1
  br label %sw.epilog.sink.split

sw.epilog.sink.split:                             ; preds = %sw.bb, %sw.bb5, %numonyx_extract_cfg_num_dummies.exit, %sw.bb28, %sw.bb35, %if.else, %if.then
  %add22.sink = phi i8 [ %add22, %if.then ], [ %add26, %if.else ], [ %add38, %sw.bb35 ], [ %conv34, %sw.bb28 ], [ %add15, %numonyx_extract_cfg_num_dummies.exit ], [ %add8, %sw.bb5 ], [ %add, %sw.bb ]
  store i8 %add22.sink, ptr %needed_bytes, align 1
  br label %sw.epilog

sw.epilog:                                        ; preds = %sw.epilog.sink.split, %get_addr_length.exit
  %pos = getelementptr inbounds nuw i8, ptr %s, i64 224
  store i32 0, ptr %pos, align 8
  %len = getelementptr inbounds nuw i8, ptr %s, i64 220
  store i32 0, ptr %len, align 4
  %state = getelementptr inbounds nuw i8, ptr %s, i64 200
  store i8 3, ptr %state, align 8
  ret void
}